; ModuleID = '22/945.c'
source_filename = "22/945.c"
target datalayout = "e-m:e-p270:32:32-p271:32:32-p272:64:64-i64:64-f80:128-n8:16:32:64-S128"
target triple = "x86_64-pc-linux-gnu"

@.str = private unnamed_addr constant [3 x i8] c"%d\00", align 1
@.str.1 = private unnamed_addr constant [3 x i8] c"No\00", align 1

; Function Attrs: noinline nounwind uwtable
define dso_local i32 @main() #0 {
  %1 = alloca i32, align 4
  %2 = alloca i32, align 4
  %3 = alloca i32, align 4
  %4 = alloca i32, align 4
  %5 = alloca i32, align 4
  %6 = alloca i32, align 4
  %7 = alloca [301 x i32], align 16
  %8 = alloca i8, align 1
  store i32 0, i32* %1, align 4
  %9 = getelementptr inbounds [301 x i32], [301 x i32]* %7, i64 0, i64 1
  %10 = call i32 (i8*, ...) @__isoc99_scanf(i8* getelementptr inbounds ([3 x i8], [3 x i8]* @.str, i64 0, i64 0), i32* %9)
  store i32 1, i32* %4, align 4
  store i32 2, i32* %2, align 4
  br label %11

11:                                               ; preds = %28, %0
  %12 = load i32, i32* %2, align 4
  %13 = icmp sle i32 %12, 300
  br i1 %13, label %14, label %31

14:                                               ; preds = %11
  %15 = call i32 @getchar()
  %16 = trunc i32 %15 to i8
  store i8 %16, i8* %8, align 1
  %17 = load i32, i32* %2, align 4
  %18 = sub nsw i32 %17, 1
  store i32 %18, i32* %4, align 4
  %19 = load i8, i8* %8, align 1
  %20 = sext i8 %19 to i32
  %21 = icmp eq i32 %20, 10
  br i1 %21, label %22, label %23

22:                                               ; preds = %14
  br label %31

23:                                               ; preds = %14
  %24 = load i32, i32* %2, align 4
  %25 = sext i32 %24 to i64
  %26 = getelementptr inbounds [301 x i32], [301 x i32]* %7, i64 0, i64 %25
  %27 = call i32 (i8*, ...) @__isoc99_scanf(i8* getelementptr inbounds ([3 x i8], [3 x i8]* @.str, i64 0, i64 0), i32* %26)
  br label %28

28:                                               ; preds = %23
  %29 = load i32, i32* %2, align 4
  %30 = add nsw i32 %29, 1
  store i32 %30, i32* %2, align 4
  br label %11

31:                                               ; preds = %22, %11
  store i32 1, i32* %3, align 4
  br label %32

32:                                               ; preds = %78, %31
  %33 = load i32, i32* %3, align 4
  %34 = load i32, i32* %4, align 4
  %35 = sub nsw i32 %34, 1
  %36 = icmp sle i32 %33, %35
  br i1 %36, label %37, label %81

37:                                               ; preds = %32
  store i32 1, i32* %2, align 4
  br label %38

38:                                               ; preds = %74, %37
  %39 = load i32, i32* %2, align 4
  %40 = load i32, i32* %4, align 4
  %41 = load i32, i32* %3, align 4
  %42 = sub nsw i32 %40, %41
  %43 = icmp sle i32 %39, %42
  br i1 %43, label %44, label %77

44:                                               ; preds = %38
  %45 = load i32, i32* %2, align 4
  %46 = sext i32 %45 to i64
  %47 = getelementptr inbounds [301 x i32], [301 x i32]* %7, i64 0, i64 %46
  %48 = load i32, i32* %47, align 4
  %49 = load i32, i32* %2, align 4
  %50 = add nsw i32 %49, 1
  %51 = sext i32 %50 to i64
  %52 = getelementptr inbounds [301 x i32], [301 x i32]* %7, i64 0, i64 %51
  %53 = load i32, i32* %52, align 4
  %54 = icmp sgt i32 %48, %53
  br i1 %54, label %55, label %73

55:                                               ; preds = %44
  %56 = load i32, i32* %2, align 4
  %57 = sext i32 %56 to i64
  %58 = getelementptr inbounds [301 x i32], [301 x i32]* %7, i64 0, i64 %57
  %59 = load i32, i32* %58, align 4
  store i32 %59, i32* %6, align 4
  %60 = load i32, i32* %2, align 4
  %61 = add nsw i32 %60, 1
  %62 = sext i32 %61 to i64
  %63 = getelementptr inbounds [301 x i32], [301 x i32]* %7, i64 0, i64 %62
  %64 = load i32, i32* %63, align 4
  %65 = load i32, i32* %2, align 4
  %66 = sext i32 %65 to i64
  %67 = getelementptr inbounds [301 x i32], [301 x i32]* %7, i64 0, i64 %66
  store i32 %64, i32* %67, align 4
  %68 = load i32, i32* %6, align 4
  %69 = load i32, i32* %2, align 4
  %70 = add nsw i32 %69, 1
  %71 = sext i32 %70 to i64
  %72 = getelementptr inbounds [301 x i32], [301 x i32]* %7, i64 0, i64 %71
  store i32 %68, i32* %72, align 4
  br label %73

73:                                               ; preds = %55, %44
  br label %74

74:                                               ; preds = %73
  %75 = load i32, i32* %2, align 4
  %76 = add nsw i32 %75, 1
  store i32 %76, i32* %2, align 4
  br label %38

77:                                               ; preds = %38
  br label %78

78:                                               ; preds = %77
  %79 = load i32, i32* %3, align 4
  %80 = add nsw i32 %79, 1
  store i32 %80, i32* %3, align 4
  br label %32

81:                                               ; preds = %32
  %82 = load i32, i32* %4, align 4
  %83 = sext i32 %82 to i64
  %84 = getelementptr inbounds [301 x i32], [301 x i32]* %7, i64 0, i64 %83
  %85 = load i32, i32* %84, align 4
  store i32 %85, i32* %6, align 4
  %86 = load i32, i32* %4, align 4
  %87 = sub nsw i32 %86, 1
  store i32 %87, i32* %3, align 4
  br label %88

88:                                               ; preds = %104, %81
  %89 = load i32, i32* %3, align 4
  %90 = icmp sge i32 %89, 1
  br i1 %90, label %91, label %107

91:                                               ; preds = %88
  %92 = load i32, i32* %3, align 4
  %93 = sext i32 %92 to i64
  %94 = getelementptr inbounds [301 x i32], [301 x i32]* %7, i64 0, i64 %93
  %95 = load i32, i32* %94, align 4
  %96 = load i32, i32* %6, align 4
  %97 = icmp slt i32 %95, %96
  br i1 %97, label %98, label %103

98:                                               ; preds = %91
  %99 = load i32, i32* %3, align 4
  %100 = sext i32 %99 to i64
  %101 = getelementptr inbounds [301 x i32], [301 x i32]* %7, i64 0, i64 %100
  %102 = load i32, i32* %101, align 4
  store i32 %102, i32* %6, align 4
  br label %107

103:                                              ; preds = %91
  br label %104

104:                                              ; preds = %103
  %105 = load i32, i32* %3, align 4
  %106 = add nsw i32 %105, -1
  store i32 %106, i32* %3, align 4
  br label %88

107:                                              ; preds = %98, %88
  %108 = load i32, i32* %6, align 4
  %109 = load i32, i32* %4, align 4
  %110 = sext i32 %109 to i64
  %111 = getelementptr inbounds [301 x i32], [301 x i32]* %7, i64 0, i64 %110
  %112 = load i32, i32* %111, align 4
  %113 = icmp eq i32 %108, %112
  br i1 %113, label %114, label %116

114:                                              ; preds = %107
  %115 = call i32 (i8*, ...) @printf(i8* getelementptr inbounds ([3 x i8], [3 x i8]* @.str.1, i64 0, i64 0))
  br label %119

116:                                              ; preds = %107
  %117 = load i32, i32* %6, align 4
  %118 = call i32 (i8*, ...) @printf(i8* getelementptr inbounds ([3 x i8], [3 x i8]* @.str, i64 0, i64 0), i32 %117)
  br label %119

119:                                              ; preds = %116, %114
  ret i32 0
}

declare dso_local i32 @__isoc99_scanf(i8*, ...) #1

declare dso_local i32 @getchar() #1

declare dso_local i32 @printf(i8*, ...) #1


!llvm.module.flags = !{!0}
!llvm.ident = !{!1}

!0 = !{i32 1, !"wchar_size", i32 4}
!1 = !{!"clang version 10.0.0-4ubuntu1 "}
